target datalayout = "e-m:e-p270:32:32-p271:32:32-p272:64:64-i64:64-i128:128-f80:128-n8:16:32:64-S128"
target triple = "x86_64-pc-linux-gnu"

%struct.WOLFSSL = type <{ ptr, ptr, ptr, ptr, [48 x i8], [48 x i8], ptr, ptr, ptr, ptr, ptr, ptr, ptr, ptr, ptr, ptr, ptr, ptr, ptr, i32, [4 x i8], %struct.WOLFSSL_CIPHER, ptr, %struct.Ciphers, %struct.Ciphers, [8 x i8], %struct.Buffers, ptr, ptr, %struct.WOLFSSL_ALERT_HISTORY, %struct.WOLFSSL_ALERT, i32, i32, i32, i32, i32, i32, i32, i16, [2 x i8], i32, i8, %struct.RecordLayerHeader, %struct.MsgsReceived, %struct.ProtocolVersion, %struct.ProtocolVersion, %struct.CipherSpecs, [2 x i8], %struct.Keys, %struct.Options, ptr, i8, i8, i16, [10 x i16], i8, i8, i16, i16, [38 x i8], i32, i32, [4 x i8], ptr, i8, i8, [6 x i8], ptr, ptr, i16, i8, i8, i32, i8, [3 x i8], i32, %struct.OneTimeAuth, ptr }>
%struct.WOLFSSL_CIPHER = type { i8, i8, ptr }
%struct.Ciphers = type { ptr, ptr, ptr, ptr, i8, i8 }
%struct.Buffers = type { %struct.bufferStatic, %struct.bufferStatic, %struct.WOLFSSL_BUFFER_INFO, %struct.WOLFSSL_BUFFER_INFO, %struct.WOLFSSL_BUFFER_INFO, %struct.WOLFSSL_BUFFER_INFO, i32, i32, i8, i8, i8, i8, %struct.WOLFSSL_BUFFER_INFO, %struct.WOLFSSL_BUFFER_INFO, %struct.WOLFSSL_BUFFER_INFO, %struct.WOLFSSL_BUFFER_INFO, ptr, ptr, ptr, i8, i8, i32, i32, ptr, i32, [1 x ptr] }
%struct.bufferStatic = type { [5 x i8], ptr, i32, i32, i32, i8, i8 }
%struct.WOLFSSL_BUFFER_INFO = type { ptr, i32 }
%struct.WOLFSSL_ALERT_HISTORY = type { %struct.WOLFSSL_ALERT, %struct.WOLFSSL_ALERT }
%struct.WOLFSSL_ALERT = type { i32, i32 }
%struct.RecordLayerHeader = type { i8, i8, i8, [2 x i8] }
%struct.MsgsReceived = type { i32 }
%struct.ProtocolVersion = type { i8, i8 }
%struct.CipherSpecs = type { i16, i16, i16, i16, i8, i8, i8, i8, i8, i8, i8, i8 }
%struct.Keys = type { [64 x i8], [64 x i8], [32 x i8], [32 x i8], [16 x i8], [16 x i8], [8 x i8], [12 x i8], [12 x i8], i32, i32, i32, i32, i32, i32, i8, i8, i8, i8 }
%struct.Options = type { i64, i64, i8, i8, i8, i8, i8, i8, i8, i8, i8, i8, i8, i8, i8, i8, i8, i8, i8, i8, i8, i8, i8, i16, i16, i16, i16, i16, i8 }
%struct.OneTimeAuth = type { ptr, i8 }
%struct.HS_Hashes = type { %struct.Hashes, %struct.Hashes, %struct.wc_Sha, %struct.wc_Md5, [8 x i8], %struct.wc_Sha256, %struct.wc_Sha512, %struct.wc_Sha512 }
%struct.Hashes = type { [16 x i8], [20 x i8], [32 x i8], [48 x i8], [64 x i8] }
%struct.wc_Sha = type { i32, i32, i32, [16 x i32], [5 x i32], ptr }
%struct.wc_Md5 = type { i32, i32, i32, [16 x i32], [4 x i32], ptr }
%struct.wc_Sha256 = type { [8 x i32], [16 x i32], i32, i32, i32, ptr, [8 x i8] }
%struct.wc_Sha512 = type { [8 x i64], [16 x i64], i32, i64, i64, ptr }

@tls13ProtocolLabel = internal constant [7 x i8] c"tls13 \00", align 1

; Function Attrs: nounwind uwtable
define internal i32 @Tls13HKDFExpandKeyLabel(ptr noundef %0, ptr noundef %1, i32 noundef %2, ptr noundef %3, i32 noundef %4, ptr noundef %5, i32 noundef %6, ptr noundef %7, i32 noundef %8, ptr noundef %9, i32 noundef %10, i32 noundef %11, i32 noundef %12) #0 {
  %14 = alloca ptr, align 8
  %15 = alloca ptr, align 8
  %16 = alloca i32, align 4
  %17 = alloca ptr, align 8
  %18 = alloca i32, align 4
  %19 = alloca ptr, align 8
  %20 = alloca i32, align 4
  %21 = alloca ptr, align 8
  %22 = alloca i32, align 4
  %23 = alloca ptr, align 8
  %24 = alloca i32, align 4
  %25 = alloca i32, align 4
  %26 = alloca i32, align 4
  %27 = alloca i32, align 4
  store ptr %0, ptr %14, align 8, !tbaa !3
  store ptr %1, ptr %15, align 8, !tbaa !8
  store i32 %2, ptr %16, align 4, !tbaa !10
  store ptr %3, ptr %17, align 8, !tbaa !8
  store i32 %4, ptr %18, align 4, !tbaa !10
  store ptr %5, ptr %19, align 8, !tbaa !8
  store i32 %6, ptr %20, align 4, !tbaa !10
  store ptr %7, ptr %21, align 8, !tbaa !8
  store i32 %8, ptr %22, align 4, !tbaa !10
  store ptr %9, ptr %23, align 8, !tbaa !8
  store i32 %10, ptr %24, align 4, !tbaa !10
  store i32 %11, ptr %25, align 4, !tbaa !10
  store i32 %12, ptr %26, align 4, !tbaa !10
  call void @llvm.lifetime.start.p0(i64 4, ptr %27) #8
  %28 = load ptr, ptr %15, align 8, !tbaa !8
  %29 = load i32, ptr %16, align 4, !tbaa !10
  %30 = load ptr, ptr %17, align 8, !tbaa !8
  %31 = load i32, ptr %18, align 4, !tbaa !10
  %32 = load ptr, ptr %19, align 8, !tbaa !8
  %33 = load i32, ptr %20, align 4, !tbaa !10
  %34 = load ptr, ptr %21, align 8, !tbaa !8
  %35 = load i32, ptr %22, align 4, !tbaa !10
  %36 = load ptr, ptr %23, align 8, !tbaa !8
  %37 = load i32, ptr %24, align 4, !tbaa !10
  %38 = load i32, ptr %25, align 4, !tbaa !10
  %39 = load ptr, ptr %14, align 8, !tbaa !3
  %40 = getelementptr inbounds nuw %struct.WOLFSSL, ptr %39, i32 0, i32 12
  %41 = load ptr, ptr %40, align 16, !tbaa !46
  %42 = load ptr, ptr %14, align 8, !tbaa !3
  %43 = getelementptr inbounds nuw %struct.WOLFSSL, ptr %42, i32 0, i32 75
  %44 = load i32, ptr %43, align 4, !tbaa !47
  %45 = call i32 @wc_Tls13_HKDF_Expand_Label_ex(ptr noundef %28, i32 noundef %29, ptr noundef %30, i32 noundef %31, ptr noundef %32, i32 noundef %33, ptr noundef %34, i32 noundef %35, ptr noundef %36, i32 noundef %37, i32 noundef %38, ptr noundef %41, i32 noundef %44)
  store i32 %45, ptr %27, align 4, !tbaa !10
  %46 = load i32, ptr %27, align 4, !tbaa !10
  call void @llvm.lifetime.end.p0(i64 4, ptr %27) #8
  ret i32 %46
}

; Function Attrs: nounwind uwtable
define i32 @Tls13DeriveKey(ptr noundef %0, ptr noundef %1, i32 noundef %2, ptr noundef %3, ptr noundef %4, i32 noundef %5, i32 noundef %6, i32 noundef %7, i32 noundef %8) #0 {
  %10 = alloca i32, align 4
  %11 = alloca ptr, align 8
  %12 = alloca ptr, align 8
  %13 = alloca i32, align 4
  %14 = alloca ptr, align 8
  %15 = alloca ptr, align 8
  %16 = alloca i32, align 4
  %17 = alloca i32, align 4
  %18 = alloca i32, align 4
  %19 = alloca i32, align 4
  %20 = alloca i32, align 4
  %21 = alloca [64 x i8], align 16
  %22 = alloca i32, align 4
  %23 = alloca i32, align 4
  %24 = alloca ptr, align 8
  %25 = alloca i32, align 4
  %26 = alloca i32, align 4
  %27 = alloca i32, align 4
  store ptr %0, ptr %11, align 8, !tbaa !3
  store ptr %1, ptr %12, align 8, !tbaa !8
  store i32 %2, ptr %13, align 4, !tbaa !10
  store ptr %3, ptr %14, align 8, !tbaa !8
  store ptr %4, ptr %15, align 8, !tbaa !8
  store i32 %5, ptr %16, align 4, !tbaa !10
  store i32 %6, ptr %17, align 4, !tbaa !10
  store i32 %7, ptr %18, align 4, !tbaa !10
  store i32 %8, ptr %19, align 4, !tbaa !10
  call void @llvm.lifetime.start.p0(i64 4, ptr %20) #8
  store i32 0, ptr %20, align 4, !tbaa !10
  call void @llvm.lifetime.start.p0(i64 64, ptr %21) #8
  call void @llvm.lifetime.start.p0(i64 4, ptr %22) #8
  store i32 0, ptr %22, align 4, !tbaa !10
  call void @llvm.lifetime.start.p0(i64 4, ptr %23) #8
  store i32 0, ptr %23, align 4, !tbaa !10
  call void @llvm.lifetime.start.p0(i64 8, ptr %24) #8
  call void @llvm.lifetime.start.p0(i64 4, ptr %25) #8
  call void @llvm.lifetime.start.p0(i64 4, ptr %26) #8
  store i32 0, ptr %26, align 4, !tbaa !10
  %28 = load i32, ptr %17, align 4, !tbaa !10
  switch i32 %28, label %51 [
    i32 4, label %29
    i32 5, label %40
  ]

29:                                               ; preds = %9
  store i32 32, ptr %22, align 4, !tbaa !10
  store i32 6, ptr %26, align 4, !tbaa !10
  %30 = load i32, ptr %18, align 4, !tbaa !10
  %31 = icmp ne i32 %30, 0
  br i1 %31, label %32, label %39

32:                                               ; preds = %29
  %33 = load ptr, ptr %11, align 8, !tbaa !3
  %34 = getelementptr inbounds nuw %struct.WOLFSSL, ptr %33, i32 0, i32 6
  %35 = load ptr, ptr %34, align 16, !tbaa !12
  %36 = getelementptr inbounds nuw %struct.HS_Hashes, ptr %35, i32 0, i32 5
  %37 = getelementptr inbounds [64 x i8], ptr %21, i64 0, i64 0
  %38 = call i32 @wc_Sha256GetHash(ptr noundef %36, ptr noundef %37)
  store i32 %38, ptr %20, align 4, !tbaa !10
  br label %39

39:                                               ; preds = %32, %29
  br label %52

40:                                               ; preds = %9
  store i32 48, ptr %22, align 4, !tbaa !10
  store i32 7, ptr %26, align 4, !tbaa !10
  %41 = load i32, ptr %18, align 4, !tbaa !10
  %42 = icmp ne i32 %41, 0
  br i1 %42, label %43, label %50

43:                                               ; preds = %40
  %44 = load ptr, ptr %11, align 8, !tbaa !3
  %45 = getelementptr inbounds nuw %struct.WOLFSSL, ptr %44, i32 0, i32 6
  %46 = load ptr, ptr %45, align 16, !tbaa !12
  %47 = getelementptr inbounds nuw %struct.HS_Hashes, ptr %46, i32 0, i32 6
  %48 = getelementptr inbounds [64 x i8], ptr %21, i64 0, i64 0
  %49 = call i32 @wc_Sha384GetHash(ptr noundef %47, ptr noundef %48)
  store i32 %49, ptr %20, align 4, !tbaa !10
  br label %50

50:                                               ; preds = %43, %40
  br label %52

51:                                               ; preds = %9
  store i32 -232, ptr %20, align 4, !tbaa !10
  br label %52

52:                                               ; preds = %51, %50, %39
  %53 = load i32, ptr %20, align 4, !tbaa !10
  %54 = icmp ne i32 %53, 0
  br i1 %54, label %55, label %57

55:                                               ; preds = %52
  %56 = load i32, ptr %20, align 4, !tbaa !10
  store i32 %56, ptr %10, align 4
  store i32 1, ptr %27, align 4
  br label %91

57:                                               ; preds = %52
  store ptr @tls13ProtocolLabel, ptr %24, align 8, !tbaa !8
  store i32 6, ptr %25, align 4, !tbaa !10
  %58 = load i32, ptr %13, align 4, !tbaa !10
  %59 = icmp eq i32 %58, -1
  br i1 %59, label %60, label %62

60:                                               ; preds = %57
  %61 = load i32, ptr %22, align 4, !tbaa !10
  store i32 %61, ptr %13, align 4, !tbaa !10
  br label %62

62:                                               ; preds = %60, %57
  %63 = load i32, ptr %18, align 4, !tbaa !10
  %64 = icmp ne i32 %63, 0
  br i1 %64, label %65, label %67

65:                                               ; preds = %62
  %66 = load i32, ptr %22, align 4, !tbaa !10
  store i32 %66, ptr %23, align 4, !tbaa !10
  br label %69

67:                                               ; preds = %62
  %68 = getelementptr inbounds [64 x i8], ptr %21, i64 0, i64 0
  call void @llvm.memset.p0.i64(ptr align 16 %68, i8 0, i64 64, i1 false)
  store i32 0, ptr %23, align 4, !tbaa !10
  br label %69

69:                                               ; preds = %67, %65
  br label %70

70:                                               ; preds = %69
  br label %71

71:                                               ; preds = %70
  br label %72

72:                                               ; preds = %71
  %73 = load ptr, ptr %11, align 8, !tbaa !3
  %74 = load ptr, ptr %12, align 8, !tbaa !8
  %75 = load i32, ptr %13, align 4, !tbaa !10
  %76 = load ptr, ptr %14, align 8, !tbaa !8
  %77 = load i32, ptr %22, align 4, !tbaa !10
  %78 = load ptr, ptr %24, align 8, !tbaa !8
  %79 = load i32, ptr %25, align 4, !tbaa !10
  %80 = load ptr, ptr %15, align 8, !tbaa !8
  %81 = load i32, ptr %16, align 4, !tbaa !10
  %82 = getelementptr inbounds [64 x i8], ptr %21, i64 0, i64 0
  %83 = load i32, ptr %23, align 4, !tbaa !10
  %84 = load i32, ptr %26, align 4, !tbaa !10
  %85 = load i32, ptr %19, align 4, !tbaa !10
  %86 = call i32 @Tls13HKDFExpandKeyLabel(ptr noundef %73, ptr noundef %74, i32 noundef %75, ptr noundef %76, i32 noundef %77, ptr noundef %78, i32 noundef %79, ptr noundef %80, i32 noundef %81, ptr noundef %82, i32 noundef %83, i32 noundef %84, i32 noundef %85)
  store i32 %86, ptr %20, align 4, !tbaa !10
  br label %87

87:                                               ; preds = %72
  br label %88

88:                                               ; preds = %87
  br label %89

89:                                               ; preds = %88
  %90 = load i32, ptr %20, align 4, !tbaa !10
  store i32 %90, ptr %10, align 4
  store i32 1, ptr %27, align 4
  br label %91

91:                                               ; preds = %89, %55
  call void @llvm.lifetime.end.p0(i64 4, ptr %26) #8
  call void @llvm.lifetime.end.p0(i64 4, ptr %25) #8
  call void @llvm.lifetime.end.p0(i64 8, ptr %24) #8
  call void @llvm.lifetime.end.p0(i64 4, ptr %23) #8
  call void @llvm.lifetime.end.p0(i64 4, ptr %22) #8
  call void @llvm.lifetime.end.p0(i64 64, ptr %21) #8
  call void @llvm.lifetime.end.p0(i64 4, ptr %20) #8
  %92 = load i32, ptr %10, align 4
  ret i32 %92
}