; Function Attrs: nounwind uwtable
define i32 @Tls13DeriveKey(ptr noundef readonly captures(none) %0, ptr noundef %1, i32 noundef %2, ptr noundef %3, ptr noundef %4, i32 noundef %5, i32 noundef %6, i32 noundef %7, i32 noundef %8) local_unnamed_addr #0 {
  %10 = alloca [64 x i8], align 16
  call void @llvm.lifetime.start.p0(i64 64, ptr nonnull %10) #11
  switch i32 %6, label %.thread40 [
    i32 4, label %11
    i32 5, label %17
  ]

11:                                               ; preds = %9
  %.not30 = icmp eq i32 %7, 0
  br i1 %.not30, label %26, label %12

12:                                               ; preds = %11
  %13 = getelementptr inbounds nuw i8, ptr %0, i64 128
  %14 = load ptr, ptr %13, align 16, !tbaa !3
  %15 = getelementptr inbounds nuw i8, ptr %14, i64 576
  %16 = call i32 @wc_Sha256GetHash(ptr noundef nonnull %15, ptr noundef nonnull %10) #11
  br label %23

17:                                               ; preds = %9
  %.not = icmp eq i32 %7, 0
  br i1 %.not, label %26, label %18

18:                                               ; preds = %17
  %19 = getelementptr inbounds nuw i8, ptr %0, i64 128
  %20 = load ptr, ptr %19, align 16, !tbaa !3
  %21 = getelementptr inbounds nuw i8, ptr %20, i64 704
  %22 = call i32 @wc_Sha384GetHash(ptr noundef nonnull %21, ptr noundef nonnull %10) #11
  br label %23

23:                                               ; preds = %18, %12
  %.028 = phi i32 [ %22, %18 ], [ %16, %12 ]
  %.027 = phi i32 [ 48, %18 ], [ 32, %12 ]
  %.0 = phi i32 [ 7, %18 ], [ 6, %12 ]
  %.not31 = icmp eq i32 %.028, 0
  br i1 %.not31, label %24, label %.thread40

24:                                               ; preds = %23
  %25 = icmp eq i32 %2, -1
  %spec.select = select i1 %25, i32 %.027, i32 %2
  br label %28

26:                                               ; preds = %17, %11
  %.027.ph = phi i32 [ 32, %11 ], [ 48, %17 ]
  %.0.ph = phi i32 [ 6, %11 ], [ 7, %17 ]
  %27 = icmp eq i32 %2, -1
  %spec.select48 = select i1 %27, i32 %.027.ph, i32 %2
  call void @llvm.memset.p0.i64(ptr noundef nonnull align 16 dereferenceable(64) %10, i8 0, i64 64, i1 false)
  br label %28

28:                                               ; preds = %24, %26
  %spec.select54 = phi i32 [ %spec.select48, %26 ], [ %spec.select, %24 ]
  %.0273852 = phi i32 [ %.027.ph, %26 ], [ %.027, %24 ]
  %.03950 = phi i32 [ %.0.ph, %26 ], [ %.0, %24 ]
  %.026 = phi i32 [ 0, %26 ], [ %.027, %24 ]
  %29 = getelementptr i8, ptr %0, i64 176
  %.val = load ptr, ptr %29, align 16, !tbaa !43
  %30 = getelementptr i8, ptr %0, i64 1204
  %.val33 = load i32, ptr %30, align 4, !tbaa !44
  %31 = call i32 @wc_Tls13_HKDF_Expand_Label_ex(ptr noundef %1, i32 noundef range(i32 0, -1) %spec.select54, ptr noundef %3, i32 noundef range(i32 0, 49) %.0273852, ptr noundef nonnull @tls13ProtocolLabel, i32 noundef 6, ptr noundef %4, i32 noundef %5, ptr noundef nonnull %10, i32 noundef range(i32 0, 49) %.026, i32 noundef range(i32 0, 8) %.03950, ptr noundef %.val, i32 noundef %.val33) #11
  br label %.thread40

.thread40:                                        ; preds = %9, %23, %28
  %.024 = phi i32 [ %31, %28 ], [ %.028, %23 ], [ -232, %9 ]
  call void @llvm.lifetime.end.p0(i64 64, ptr nonnull %10) #11
  ret i32 %.024
}